target datalayout = "e-m:e-p270:32:32-p271:32:32-p272:64:64-i64:64-i128:128-f80:128-n8:16:32:64-S128"
target triple = "x86_64-pc-linux-gnu"

; Function Attrs: nounwind uwtable
define i64 @stbds_siphash_bytes(ptr noundef %0, i64 noundef %1, i64 noundef %2) #0 {
  %4 = alloca ptr, align 8
  %5 = alloca i64, align 8
  %6 = alloca i64, align 8
  %7 = alloca ptr, align 8
  %8 = alloca i64, align 8
  %9 = alloca i64, align 8
  %10 = alloca i64, align 8
  %11 = alloca i64, align 8
  %12 = alloca i64, align 8
  %13 = alloca i64, align 8
  %14 = alloca i64, align 8
  store ptr %0, ptr %4, align 8, !tbaa !3
  store i64 %1, ptr %5, align 8, !tbaa !7
  store i64 %2, ptr %6, align 8, !tbaa !7
  call void @llvm.lifetime.start.p0(i64 8, ptr %7) #7
  %15 = load ptr, ptr %4, align 8, !tbaa !3
  store ptr %15, ptr %7, align 8, !tbaa !39
  call void @llvm.lifetime.start.p0(i64 8, ptr %8) #7
  call void @llvm.lifetime.start.p0(i64 8, ptr %9) #7
  call void @llvm.lifetime.start.p0(i64 8, ptr %10) #7
  call void @llvm.lifetime.start.p0(i64 8, ptr %11) #7
  call void @llvm.lifetime.start.p0(i64 8, ptr %12) #7
  call void @llvm.lifetime.start.p0(i64 8, ptr %13) #7
  call void @llvm.lifetime.start.p0(i64 8, ptr %14) #7
  %16 = load i64, ptr %6, align 8, !tbaa !7
  %17 = xor i64 8317987319222330741, %16
  store i64 %17, ptr %10, align 8, !tbaa !7
  %18 = load i64, ptr %6, align 8, !tbaa !7
  %19 = xor i64 %18, -1
  %20 = xor i64 7237128888997146477, %19
  store i64 %20, ptr %11, align 8, !tbaa !7
  %21 = load i64, ptr %6, align 8, !tbaa !7
  %22 = xor i64 7816392313619706465, %21
  store i64 %22, ptr %12, align 8, !tbaa !7
  %23 = load i64, ptr %6, align 8, !tbaa !7
  %24 = xor i64 %23, -1
  %25 = xor i64 8387220255154660723, %24
  store i64 %25, ptr %13, align 8, !tbaa !7
  store i64 0, ptr %8, align 8, !tbaa !7
  br label %26

26:                                               ; preds = %153, %3
  %27 = load i64, ptr %8, align 8, !tbaa !7
  %28 = add i64 %27, 8
  %29 = load i64, ptr %5, align 8, !tbaa !7
  %30 = icmp ule i64 %28, %29
  br i1 %30, label %31, label %158

31:                                               ; preds = %26
  %32 = load ptr, ptr %7, align 8, !tbaa !39
  %33 = getelementptr inbounds i8, ptr %32, i64 0
  %34 = load i8, ptr %33, align 1, !tbaa !30
  %35 = zext i8 %34 to i32
  %36 = load ptr, ptr %7, align 8, !tbaa !39
  %37 = getelementptr inbounds i8, ptr %36, i64 1
  %38 = load i8, ptr %37, align 1, !tbaa !30
  %39 = zext i8 %38 to i32
  %40 = shl i32 %39, 8
  %41 = or i32 %35, %40
  %42 = load ptr, ptr %7, align 8, !tbaa !39
  %43 = getelementptr inbounds i8, ptr %42, i64 2
  %44 = load i8, ptr %43, align 1, !tbaa !30
  %45 = zext i8 %44 to i32
  %46 = shl i32 %45, 16
  %47 = or i32 %41, %46
  %48 = load ptr, ptr %7, align 8, !tbaa !39
  %49 = getelementptr inbounds i8, ptr %48, i64 3
  %50 = load i8, ptr %49, align 1, !tbaa !30
  %51 = zext i8 %50 to i32
  %52 = shl i32 %51, 24
  %53 = or i32 %47, %52
  %54 = sext i32 %53 to i64
  store i64 %54, ptr %14, align 8, !tbaa !7
  %55 = load ptr, ptr %7, align 8, !tbaa !39
  %56 = getelementptr inbounds i8, ptr %55, i64 4
  %57 = load i8, ptr %56, align 1, !tbaa !30
  %58 = zext i8 %57 to i32
  %59 = load ptr, ptr %7, align 8, !tbaa !39
  %60 = getelementptr inbounds i8, ptr %59, i64 5
  %61 = load i8, ptr %60, align 1, !tbaa !30
  %62 = zext i8 %61 to i32
  %63 = shl i32 %62, 8
  %64 = or i32 %58, %63
  %65 = load ptr, ptr %7, align 8, !tbaa !39
  %66 = getelementptr inbounds i8, ptr %65, i64 6
  %67 = load i8, ptr %66, align 1, !tbaa !30
  %68 = zext i8 %67 to i32
  %69 = shl i32 %68, 16
  %70 = or i32 %64, %69
  %71 = load ptr, ptr %7, align 8, !tbaa !39
  %72 = getelementptr inbounds i8, ptr %71, i64 7
  %73 = load i8, ptr %72, align 1, !tbaa !30
  %74 = zext i8 %73 to i32
  %75 = shl i32 %74, 24
  %76 = or i32 %70, %75
  %77 = sext i32 %76 to i64
  %78 = shl i64 %77, 16
  %79 = shl i64 %78, 16
  %80 = load i64, ptr %14, align 8, !tbaa !7
  %81 = or i64 %80, %79
  store i64 %81, ptr %14, align 8, !tbaa !7
  %82 = load i64, ptr %14, align 8, !tbaa !7
  %83 = load i64, ptr %13, align 8, !tbaa !7
  %84 = xor i64 %83, %82
  store i64 %84, ptr %13, align 8, !tbaa !7
  store i64 0, ptr %9, align 8, !tbaa !7
  br label %85

85:                                               ; preds = %146, %31
  %86 = load i64, ptr %9, align 8, !tbaa !7
  %87 = icmp ult i64 %86, 1
  br i1 %87, label %88, label %149

88:                                               ; preds = %85
  br label %89

89:                                               ; preds = %88
  %90 = load i64, ptr %11, align 8, !tbaa !7
  %91 = load i64, ptr %10, align 8, !tbaa !7
  %92 = add i64 %91, %90
  store i64 %92, ptr %10, align 8, !tbaa !7
  %93 = load i64, ptr %11, align 8, !tbaa !7
  %94 = shl i64 %93, 13
  %95 = load i64, ptr %11, align 8, !tbaa !7
  %96 = lshr i64 %95, 51
  %97 = or i64 %94, %96
  store i64 %97, ptr %11, align 8, !tbaa !7
  %98 = load i64, ptr %10, align 8, !tbaa !7
  %99 = load i64, ptr %11, align 8, !tbaa !7
  %100 = xor i64 %99, %98
  store i64 %100, ptr %11, align 8, !tbaa !7
  %101 = load i64, ptr %10, align 8, !tbaa !7
  %102 = shl i64 %101, 32
  %103 = load i64, ptr %10, align 8, !tbaa !7
  %104 = lshr i64 %103, 32
  %105 = or i64 %102, %104
  store i64 %105, ptr %10, align 8, !tbaa !7
  %106 = load i64, ptr %13, align 8, !tbaa !7
  %107 = load i64, ptr %12, align 8, !tbaa !7
  %108 = add i64 %107, %106
  store i64 %108, ptr %12, align 8, !tbaa !7
  %109 = load i64, ptr %13, align 8, !tbaa !7
  %110 = shl i64 %109, 16
  %111 = load i64, ptr %13, align 8, !tbaa !7
  %112 = lshr i64 %111, 48
  %113 = or i64 %110, %112
  store i64 %113, ptr %13, align 8, !tbaa !7
  %114 = load i64, ptr %12, align 8, !tbaa !7
  %115 = load i64, ptr %13, align 8, !tbaa !7
  %116 = xor i64 %115, %114
  store i64 %116, ptr %13, align 8, !tbaa !7
  %117 = load i64, ptr %11, align 8, !tbaa !7
  %118 = load i64, ptr %12, align 8, !tbaa !7
  %119 = add i64 %118, %117
  store i64 %119, ptr %12, align 8, !tbaa !7
  %120 = load i64, ptr %11, align 8, !tbaa !7
  %121 = shl i64 %120, 17
  %122 = load i64, ptr %11, align 8, !tbaa !7
  %123 = lshr i64 %122, 47
  %124 = or i64 %121, %123
  store i64 %124, ptr %11, align 8, !tbaa !7
  %125 = load i64, ptr %12, align 8, !tbaa !7
  %126 = load i64, ptr %11, align 8, !tbaa !7
  %127 = xor i64 %126, %125
  store i64 %127, ptr %11, align 8, !tbaa !7
  %128 = load i64, ptr %12, align 8, !tbaa !7
  %129 = shl i64 %128, 32
  %130 = load i64, ptr %12, align 8, !tbaa !7
  %131 = lshr i64 %130, 32
  %132 = or i64 %129, %131
  store i64 %132, ptr %12, align 8, !tbaa !7
  %133 = load i64, ptr %13, align 8, !tbaa !7
  %134 = load i64, ptr %10, align 8, !tbaa !7
  %135 = add i64 %134, %133
  store i64 %135, ptr %10, align 8, !tbaa !7
  %136 = load i64, ptr %13, align 8, !tbaa !7
  %137 = shl i64 %136, 21
  %138 = load i64, ptr %13, align 8, !tbaa !7
  %139 = lshr i64 %138, 43
  %140 = or i64 %137, %139
  store i64 %140, ptr %13, align 8, !tbaa !7
  %141 = load i64, ptr %10, align 8, !tbaa !7
  %142 = load i64, ptr %13, align 8, !tbaa !7
  %143 = xor i64 %142, %141
  store i64 %143, ptr %13, align 8, !tbaa !7
  br label %144

144:                                              ; preds = %89
  br label %145

145:                                              ; preds = %144
  br label %146

146:                                              ; preds = %145
  %147 = load i64, ptr %9, align 8, !tbaa !7
  %148 = add i64 %147, 1
  store i64 %148, ptr %9, align 8, !tbaa !7
  br label %85, !llvm.loop !41

149:                                              ; preds = %85
  %150 = load i64, ptr %14, align 8, !tbaa !7
  %151 = load i64, ptr %10, align 8, !tbaa !7
  %152 = xor i64 %151, %150
  store i64 %152, ptr %10, align 8, !tbaa !7
  br label %153

153:                                              ; preds = %149
  %154 = load i64, ptr %8, align 8, !tbaa !7
  %155 = add i64 %154, 8
  store i64 %155, ptr %8, align 8, !tbaa !7
  %156 = load ptr, ptr %7, align 8, !tbaa !39
  %157 = getelementptr inbounds nuw i8, ptr %156, i64 8
  store ptr %157, ptr %7, align 8, !tbaa !39
  br label %26, !llvm.loop !42

158:                                              ; preds = %26
  %159 = load i64, ptr %5, align 8, !tbaa !7
  %160 = shl i64 %159, 56
  store i64 %160, ptr %14, align 8, !tbaa !7
  %161 = load i64, ptr %5, align 8, !tbaa !7
  %162 = load i64, ptr %8, align 8, !tbaa !7
  %163 = sub i64 %161, %162
  switch i64 %163, label %225 [
    i64 7, label %164
    i64 6, label %173
    i64 5, label %182
    i64 4, label %191
    i64 3, label %200
    i64 2, label %209
    i64 1, label %218
    i64 0, label %225
  ]

164:                                              ; preds = %158
  %165 = load ptr, ptr %7, align 8, !tbaa !39
  %166 = getelementptr inbounds i8, ptr %165, i64 6
  %167 = load i8, ptr %166, align 1, !tbaa !30
  %168 = zext i8 %167 to i64
  %169 = shl i64 %168, 24
  %170 = shl i64 %169, 24
  %171 = load i64, ptr %14, align 8, !tbaa !7
  %172 = or i64 %171, %170
  store i64 %172, ptr %14, align 8, !tbaa !7
  br label %173

173:                                              ; preds = %158, %164
  %174 = load ptr, ptr %7, align 8, !tbaa !39
  %175 = getelementptr inbounds i8, ptr %174, i64 5
  %176 = load i8, ptr %175, align 1, !tbaa !30
  %177 = zext i8 %176 to i64
  %178 = shl i64 %177, 20
  %179 = shl i64 %178, 20
  %180 = load i64, ptr %14, align 8, !tbaa !7
  %181 = or i64 %180, %179
  store i64 %181, ptr %14, align 8, !tbaa !7
  br label %182

182:                                              ; preds = %158, %173
  %183 = load ptr, ptr %7, align 8, !tbaa !39
  %184 = getelementptr inbounds i8, ptr %183, i64 4
  %185 = load i8, ptr %184, align 1, !tbaa !30
  %186 = zext i8 %185 to i64
  %187 = shl i64 %186, 16
  %188 = shl i64 %187, 16
  %189 = load i64, ptr %14, align 8, !tbaa !7
  %190 = or i64 %189, %188
  store i64 %190, ptr %14, align 8, !tbaa !7
  br label %191

191:                                              ; preds = %158, %182
  %192 = load ptr, ptr %7, align 8, !tbaa !39
  %193 = getelementptr inbounds i8, ptr %192, i64 3
  %194 = load i8, ptr %193, align 1, !tbaa !30
  %195 = zext i8 %194 to i32
  %196 = shl i32 %195, 24
  %197 = sext i32 %196 to i64
  %198 = load i64, ptr %14, align 8, !tbaa !7
  %199 = or i64 %198, %197
  store i64 %199, ptr %14, align 8, !tbaa !7
  br label %200

200:                                              ; preds = %158, %191
  %201 = load ptr, ptr %7, align 8, !tbaa !39
  %202 = getelementptr inbounds i8, ptr %201, i64 2
  %203 = load i8, ptr %202, align 1, !tbaa !30
  %204 = zext i8 %203 to i32
  %205 = shl i32 %204, 16
  %206 = sext i32 %205 to i64
  %207 = load i64, ptr %14, align 8, !tbaa !7
  %208 = or i64 %207, %206
  store i64 %208, ptr %14, align 8, !tbaa !7
  br label %209

209:                                              ; preds = %158, %200
  %210 = load ptr, ptr %7, align 8, !tbaa !39
  %211 = getelementptr inbounds i8, ptr %210, i64 1
  %212 = load i8, ptr %211, align 1, !tbaa !30
  %213 = zext i8 %212 to i32
  %214 = shl i32 %213, 8
  %215 = sext i32 %214 to i64
  %216 = load i64, ptr %14, align 8, !tbaa !7
  %217 = or i64 %216, %215
  store i64 %217, ptr %14, align 8, !tbaa !7
  br label %218

218:                                              ; preds = %158, %209
  %219 = load ptr, ptr %7, align 8, !tbaa !39
  %220 = getelementptr inbounds i8, ptr %219, i64 0
  %221 = load i8, ptr %220, align 1, !tbaa !30
  %222 = zext i8 %221 to i64
  %223 = load i64, ptr %14, align 8, !tbaa !7
  %224 = or i64 %223, %222
  store i64 %224, ptr %14, align 8, !tbaa !7
  br label %225

225:                                              ; preds = %158, %218, %158
  %226 = load i64, ptr %14, align 8, !tbaa !7
  %227 = load i64, ptr %13, align 8, !tbaa !7
  %228 = xor i64 %227, %226
  store i64 %228, ptr %13, align 8, !tbaa !7
  store i64 0, ptr %9, align 8, !tbaa !7
  br label %229

229:                                              ; preds = %290, %225
  %230 = load i64, ptr %9, align 8, !tbaa !7
  %231 = icmp ult i64 %230, 1
  br i1 %231, label %232, label %293

232:                                              ; preds = %229
  br label %233

233:                                              ; preds = %232
  %234 = load i64, ptr %11, align 8, !tbaa !7
  %235 = load i64, ptr %10, align 8, !tbaa !7
  %236 = add i64 %235, %234
  store i64 %236, ptr %10, align 8, !tbaa !7
  %237 = load i64, ptr %11, align 8, !tbaa !7
  %238 = shl i64 %237, 13
  %239 = load i64, ptr %11, align 8, !tbaa !7
  %240 = lshr i64 %239, 51
  %241 = or i64 %238, %240
  store i64 %241, ptr %11, align 8, !tbaa !7
  %242 = load i64, ptr %10, align 8, !tbaa !7
  %243 = load i64, ptr %11, align 8, !tbaa !7
  %244 = xor i64 %243, %242
  store i64 %244, ptr %11, align 8, !tbaa !7
  %245 = load i64, ptr %10, align 8, !tbaa !7
  %246 = shl i64 %245, 32
  %247 = load i64, ptr %10, align 8, !tbaa !7
  %248 = lshr i64 %247, 32
  %249 = or i64 %246, %248
  store i64 %249, ptr %10, align 8, !tbaa !7
  %250 = load i64, ptr %13, align 8, !tbaa !7
  %251 = load i64, ptr %12, align 8, !tbaa !7
  %252 = add i64 %251, %250
  store i64 %252, ptr %12, align 8, !tbaa !7
  %253 = load i64, ptr %13, align 8, !tbaa !7
  %254 = shl i64 %253, 16
  %255 = load i64, ptr %13, align 8, !tbaa !7
  %256 = lshr i64 %255, 48
  %257 = or i64 %254, %256
  store i64 %257, ptr %13, align 8, !tbaa !7
  %258 = load i64, ptr %12, align 8, !tbaa !7
  %259 = load i64, ptr %13, align 8, !tbaa !7
  %260 = xor i64 %259, %258
  store i64 %260, ptr %13, align 8, !tbaa !7
  %261 = load i64, ptr %11, align 8, !tbaa !7
  %262 = load i64, ptr %12, align 8, !tbaa !7
  %263 = add i64 %262, %261
  store i64 %263, ptr %12, align 8, !tbaa !7
  %264 = load i64, ptr %11, align 8, !tbaa !7
  %265 = shl i64 %264, 17
  %266 = load i64, ptr %11, align 8, !tbaa !7
  %267 = lshr i64 %266, 47
  %268 = or i64 %265, %267
  store i64 %268, ptr %11, align 8, !tbaa !7
  %269 = load i64, ptr %12, align 8, !tbaa !7
  %270 = load i64, ptr %11, align 8, !tbaa !7
  %271 = xor i64 %270, %269
  store i64 %271, ptr %11, align 8, !tbaa !7
  %272 = load i64, ptr %12, align 8, !tbaa !7
  %273 = shl i64 %272, 32
  %274 = load i64, ptr %12, align 8, !tbaa !7
  %275 = lshr i64 %274, 32
  %276 = or i64 %273, %275
  store i64 %276, ptr %12, align 8, !tbaa !7
  %277 = load i64, ptr %13, align 8, !tbaa !7
  %278 = load i64, ptr %10, align 8, !tbaa !7
  %279 = add i64 %278, %277
  store i64 %279, ptr %10, align 8, !tbaa !7
  %280 = load i64, ptr %13, align 8, !tbaa !7
  %281 = shl i64 %280, 21
  %282 = load i64, ptr %13, align 8, !tbaa !7
  %283 = lshr i64 %282, 43
  %284 = or i64 %281, %283
  store i64 %284, ptr %13, align 8, !tbaa !7
  %285 = load i64, ptr %10, align 8, !tbaa !7
  %286 = load i64, ptr %13, align 8, !tbaa !7
  %287 = xor i64 %286, %285
  store i64 %287, ptr %13, align 8, !tbaa !7
  br label %288

288:                                              ; preds = %233
  br label %289

289:                                              ; preds = %288
  br label %290

290:                                              ; preds = %289
  %291 = load i64, ptr %9, align 8, !tbaa !7
  %292 = add i64 %291, 1
  store i64 %292, ptr %9, align 8, !tbaa !7
  br label %229, !llvm.loop !43

293:                                              ; preds = %229
  %294 = load i64, ptr %14, align 8, !tbaa !7
  %295 = load i64, ptr %10, align 8, !tbaa !7
  %296 = xor i64 %295, %294
  store i64 %296, ptr %10, align 8, !tbaa !7
  %297 = load i64, ptr %12, align 8, !tbaa !7
  %298 = xor i64 %297, 255
  store i64 %298, ptr %12, align 8, !tbaa !7
  store i64 0, ptr %9, align 8, !tbaa !7
  br label %299

299:                                              ; preds = %360, %293
  %300 = load i64, ptr %9, align 8, !tbaa !7
  %301 = icmp ult i64 %300, 1
  br i1 %301, label %302, label %363

302:                                              ; preds = %299
  br label %303

303:                                              ; preds = %302
  %304 = load i64, ptr %11, align 8, !tbaa !7
  %305 = load i64, ptr %10, align 8, !tbaa !7
  %306 = add i64 %305, %304
  store i64 %306, ptr %10, align 8, !tbaa !7
  %307 = load i64, ptr %11, align 8, !tbaa !7
  %308 = shl i64 %307, 13
  %309 = load i64, ptr %11, align 8, !tbaa !7
  %310 = lshr i64 %309, 51
  %311 = or i64 %308, %310
  store i64 %311, ptr %11, align 8, !tbaa !7
  %312 = load i64, ptr %10, align 8, !tbaa !7
  %313 = load i64, ptr %11, align 8, !tbaa !7
  %314 = xor i64 %313, %312
  store i64 %314, ptr %11, align 8, !tbaa !7
  %315 = load i64, ptr %10, align 8, !tbaa !7
  %316 = shl i64 %315, 32
  %317 = load i64, ptr %10, align 8, !tbaa !7
  %318 = lshr i64 %317, 32
  %319 = or i64 %316, %318
  store i64 %319, ptr %10, align 8, !tbaa !7
  %320 = load i64, ptr %13, align 8, !tbaa !7
  %321 = load i64, ptr %12, align 8, !tbaa !7
  %322 = add i64 %321, %320
  store i64 %322, ptr %12, align 8, !tbaa !7
  %323 = load i64, ptr %13, align 8, !tbaa !7
  %324 = shl i64 %323, 16
  %325 = load i64, ptr %13, align 8, !tbaa !7
  %326 = lshr i64 %325, 48
  %327 = or i64 %324, %326
  store i64 %327, ptr %13, align 8, !tbaa !7
  %328 = load i64, ptr %12, align 8, !tbaa !7
  %329 = load i64, ptr %13, align 8, !tbaa !7
  %330 = xor i64 %329, %328
  store i64 %330, ptr %13, align 8, !tbaa !7
  %331 = load i64, ptr %11, align 8, !tbaa !7
  %332 = load i64, ptr %12, align 8, !tbaa !7
  %333 = add i64 %332, %331
  store i64 %333, ptr %12, align 8, !tbaa !7
  %334 = load i64, ptr %11, align 8, !tbaa !7
  %335 = shl i64 %334, 17
  %336 = load i64, ptr %11, align 8, !tbaa !7
  %337 = lshr i64 %336, 47
  %338 = or i64 %335, %337
  store i64 %338, ptr %11, align 8, !tbaa !7
  %339 = load i64, ptr %12, align 8, !tbaa !7
  %340 = load i64, ptr %11, align 8, !tbaa !7
  %341 = xor i64 %340, %339
  store i64 %341, ptr %11, align 8, !tbaa !7
  %342 = load i64, ptr %12, align 8, !tbaa !7
  %343 = shl i64 %342, 32
  %344 = load i64, ptr %12, align 8, !tbaa !7
  %345 = lshr i64 %344, 32
  %346 = or i64 %343, %345
  store i64 %346, ptr %12, align 8, !tbaa !7
  %347 = load i64, ptr %13, align 8, !tbaa !7
  %348 = load i64, ptr %10, align 8, !tbaa !7
  %349 = add i64 %348, %347
  store i64 %349, ptr %10, align 8, !tbaa !7
  %350 = load i64, ptr %13, align 8, !tbaa !7
  %351 = shl i64 %350, 21
  %352 = load i64, ptr %13, align 8, !tbaa !7
  %353 = lshr i64 %352, 43
  %354 = or i64 %351, %353
  store i64 %354, ptr %13, align 8, !tbaa !7
  %355 = load i64, ptr %10, align 8, !tbaa !7
  %356 = load i64, ptr %13, align 8, !tbaa !7
  %357 = xor i64 %356, %355
  store i64 %357, ptr %13, align 8, !tbaa !7
  br label %358

358:                                              ; preds = %303
  br label %359

359:                                              ; preds = %358
  br label %360

360:                                              ; preds = %359
  %361 = load i64, ptr %9, align 8, !tbaa !7
  %362 = add i64 %361, 1
  store i64 %362, ptr %9, align 8, !tbaa !7
  br label %299, !llvm.loop !44

363:                                              ; preds = %299
  %364 = load i64, ptr %11, align 8, !tbaa !7
  %365 = load i64, ptr %12, align 8, !tbaa !7
  %366 = xor i64 %364, %365
  %367 = load i64, ptr %13, align 8, !tbaa !7
  %368 = xor i64 %366, %367
  call void @llvm.lifetime.end.p0(i64 8, ptr %14) #7
  call void @llvm.lifetime.end.p0(i64 8, ptr %13) #7
  call void @llvm.lifetime.end.p0(i64 8, ptr %12) #7
  call void @llvm.lifetime.end.p0(i64 8, ptr %11) #7
  call void @llvm.lifetime.end.p0(i64 8, ptr %10) #7
  call void @llvm.lifetime.end.p0(i64 8, ptr %9) #7
  call void @llvm.lifetime.end.p0(i64 8, ptr %8) #7
  call void @llvm.lifetime.end.p0(i64 8, ptr %7) #7
  ret i64 %368
}