; Function Attrs: nofree norecurse nosync nounwind memory(argmem: read) uwtable
define i64 @stbds_siphash_bytes(ptr noundef readonly captures(none) %0, i64 noundef %1, i64 noundef %2) local_unnamed_addr #10 {
  %4 = xor i64 %2, 8317987319222330741
  %5 = xor i64 %2, -7237128888997146478
  %6 = xor i64 %2, 7816392313619706465
  %7 = xor i64 %2, -8387220255154660724
  %.not163 = icmp ult i64 %1, 8
  br i1 %.not163, label %._crit_edge, label %.lr.ph

.lr.ph:                                           ; preds = %3, %.lr.ph
  %8 = phi i64 [ %33, %.lr.ph ], [ 8, %3 ]
  %.0136168 = phi i64 [ %30, %.lr.ph ], [ %7, %3 ]
  %.0140167 = phi i64 [ %27, %.lr.ph ], [ %6, %3 ]
  %.0144166 = phi i64 [ %26, %.lr.ph ], [ %5, %3 ]
  %.0148165 = phi i64 [ %31, %.lr.ph ], [ %4, %3 ]
  %.0156164 = phi ptr [ %32, %.lr.ph ], [ %0, %3 ]
  %9 = load i32, ptr %.0156164, align 1
  %10 = sext i32 %9 to i64
  %11 = getelementptr inbounds nuw i8, ptr %.0156164, i64 4
  %12 = load i32, ptr %11, align 1
  %13 = zext i32 %12 to i64
  %14 = shl nuw i64 %13, 32
  %15 = or i64 %14, %10
  %16 = xor i64 %15, %.0136168
  %17 = add i64 %.0144166, %.0148165
  %18 = tail call i64 @llvm.fshl.i64(i64 %.0144166, i64 %.0144166, i64 13)
  %19 = xor i64 %18, %17
  %20 = tail call i64 @llvm.fshl.i64(i64 %17, i64 %17, i64 32)
  %21 = add i64 %16, %.0140167
  %22 = tail call i64 @llvm.fshl.i64(i64 %16, i64 %16, i64 16)
  %23 = xor i64 %22, %21
  %24 = add i64 %21, %19
  %25 = tail call i64 @llvm.fshl.i64(i64 %19, i64 %19, i64 17)
  %26 = xor i64 %24, %25
  %27 = tail call i64 @llvm.fshl.i64(i64 %24, i64 %24, i64 32)
  %28 = add i64 %23, %20
  %29 = tail call i64 @llvm.fshl.i64(i64 %23, i64 %23, i64 21)
  %30 = xor i64 %29, %28
  %31 = xor i64 %28, %15
  %32 = getelementptr inbounds nuw i8, ptr %.0156164, i64 8
  %33 = add i64 %8, 8
  %.not = icmp ugt i64 %33, %1
  br i1 %.not, label %._crit_edge, label %.lr.ph, !llvm.loop !35

._crit_edge:                                      ; preds = %.lr.ph, %3
  %.0156.lcssa = phi ptr [ %0, %3 ], [ %32, %.lr.ph ]
  %.0155.lcssa = phi i64 [ 0, %3 ], [ %8, %.lr.ph ]
  %.0148.lcssa = phi i64 [ %4, %3 ], [ %31, %.lr.ph ]
  %.0144.lcssa = phi i64 [ %5, %3 ], [ %26, %.lr.ph ]
  %.0140.lcssa = phi i64 [ %6, %3 ], [ %27, %.lr.ph ]
  %.0136.lcssa = phi i64 [ %7, %3 ], [ %30, %.lr.ph ]
  %34 = shl i64 %1, 56
  %35 = sub i64 %1, %.0155.lcssa
  switch i64 %35, label %77 [
    i64 7, label %36
    i64 6, label %42
    i64 5, label %48
    i64 4, label %54
    i64 3, label %61
    i64 2, label %67
    i64 1, label %73
  ]

36:                                               ; preds = %._crit_edge
  %37 = getelementptr inbounds nuw i8, ptr %.0156.lcssa, i64 6
  %38 = load i8, ptr %37, align 1, !tbaa !27
  %39 = zext i8 %38 to i64
  %40 = shl nuw nsw i64 %39, 48
  %41 = or disjoint i64 %40, %34
  br label %42

42:                                               ; preds = %36, %._crit_edge
  %.1 = phi i64 [ %34, %._crit_edge ], [ %41, %36 ]
  %43 = getelementptr inbounds nuw i8, ptr %.0156.lcssa, i64 5
  %44 = load i8, ptr %43, align 1, !tbaa !27
  %45 = zext i8 %44 to i64
  %46 = shl nuw nsw i64 %45, 40
  %47 = or i64 %46, %.1
  br label %48

48:                                               ; preds = %42, %._crit_edge
  %.2 = phi i64 [ %34, %._crit_edge ], [ %47, %42 ]
  %49 = getelementptr inbounds nuw i8, ptr %.0156.lcssa, i64 4
  %50 = load i8, ptr %49, align 1, !tbaa !27
  %51 = zext i8 %50 to i64
  %52 = shl nuw nsw i64 %51, 32
  %53 = or i64 %52, %.2
  br label %54

54:                                               ; preds = %48, %._crit_edge
  %.3 = phi i64 [ %34, %._crit_edge ], [ %53, %48 ]
  %55 = getelementptr inbounds nuw i8, ptr %.0156.lcssa, i64 3
  %56 = load i8, ptr %55, align 1, !tbaa !27
  %57 = zext i8 %56 to i32
  %58 = shl nuw i32 %57, 24
  %59 = sext i32 %58 to i64
  %60 = or i64 %.3, %59
  br label %61

61:                                               ; preds = %54, %._crit_edge
  %.4 = phi i64 [ %34, %._crit_edge ], [ %60, %54 ]
  %62 = getelementptr inbounds nuw i8, ptr %.0156.lcssa, i64 2
  %63 = load i8, ptr %62, align 1, !tbaa !27
  %64 = zext i8 %63 to i64
  %65 = shl nuw nsw i64 %64, 16
  %66 = or i64 %65, %.4
  br label %67

67:                                               ; preds = %61, %._crit_edge
  %.5 = phi i64 [ %34, %._crit_edge ], [ %66, %61 ]
  %68 = getelementptr inbounds nuw i8, ptr %.0156.lcssa, i64 1
  %69 = load i8, ptr %68, align 1, !tbaa !27
  %70 = zext i8 %69 to i64
  %71 = shl nuw nsw i64 %70, 8
  %72 = or i64 %71, %.5
  br label %73

73:                                               ; preds = %67, %._crit_edge
  %.6 = phi i64 [ %34, %._crit_edge ], [ %72, %67 ]
  %74 = load i8, ptr %.0156.lcssa, align 1, !tbaa !27
  %75 = zext i8 %74 to i64
  %76 = or i64 %.6, %75
  br label %77

77:                                               ; preds = %73, %._crit_edge
  %.0 = phi i64 [ %34, %._crit_edge ], [ %76, %73 ]
  %78 = xor i64 %.0, %.0136.lcssa
  %79 = add i64 %.0144.lcssa, %.0148.lcssa
  %80 = tail call i64 @llvm.fshl.i64(i64 %.0144.lcssa, i64 %.0144.lcssa, i64 13)
  %81 = xor i64 %80, %79
  %82 = tail call i64 @llvm.fshl.i64(i64 %79, i64 %79, i64 32)
  %83 = add i64 %78, %.0140.lcssa
  %84 = tail call i64 @llvm.fshl.i64(i64 %78, i64 %78, i64 16)
  %85 = xor i64 %84, %83
  %86 = add i64 %83, %81
  %87 = tail call i64 @llvm.fshl.i64(i64 %81, i64 %81, i64 17)
  %88 = xor i64 %86, %87
  %89 = tail call i64 @llvm.fshl.i64(i64 %86, i64 %86, i64 32)
  %90 = add i64 %85, %82
  %91 = tail call i64 @llvm.fshl.i64(i64 %85, i64 %85, i64 21)
  %92 = xor i64 %91, %90
  %93 = xor i64 %90, %.0
  %94 = xor i64 %89, 255
  %95 = add i64 %88, %93
  %96 = tail call i64 @llvm.fshl.i64(i64 %88, i64 %88, i64 13)
  %97 = xor i64 %96, %95
  %98 = tail call i64 @llvm.fshl.i64(i64 %95, i64 %95, i64 32)
  %99 = add i64 %92, %94
  %100 = tail call i64 @llvm.fshl.i64(i64 %92, i64 %92, i64 16)
  %101 = xor i64 %100, %99
  %102 = add i64 %99, %97
  %103 = tail call i64 @llvm.fshl.i64(i64 %97, i64 %97, i64 17)
  %104 = tail call i64 @llvm.fshl.i64(i64 %102, i64 %102, i64 32)
  %105 = add i64 %101, %98
  %106 = tail call i64 @llvm.fshl.i64(i64 %101, i64 %101, i64 21)
  %107 = xor i64 %106, %105
  %108 = xor i64 %103, %104
  %109 = xor i64 %108, %107
  %110 = xor i64 %109, %102
  ret i64 %110
}